; Function Attrs: mustprogress nounwind uwtable
define dso_local void @_ZNK9Stockfish10ThreadPool24wait_for_search_finishedEv(ptr nocapture noundef nonnull readonly align 8 dereferenceable(40) %0) local_unnamed_addr #3 align 2 {
  %2 = alloca %"class.std::unique_lock", align 8
  %3 = getelementptr inbounds i8, ptr %0, i64 16
  %4 = load ptr, ptr %3, align 8
  %5 = getelementptr inbounds i8, ptr %0, i64 24
  %6 = load ptr, ptr %5, align 8
  %.not89 = icmp eq ptr %4, %6
  br i1 %.not89, label %._crit_edge, label %.lr.ph

.lr.ph:                                           ; preds = %1
  %7 = getelementptr inbounds i8, ptr %2, i64 8
  br label %8

8:                                                ; preds = %.lr.ph, %25
  %.sroa.05.010 = phi ptr [ %4, %.lr.ph ], [ %26, %25 ]
  %9 = load ptr, ptr %.sroa.05.010, align 8
  %10 = load ptr, ptr %3, align 8
  %11 = load ptr, ptr %10, align 8
  %.not = icmp eq ptr %9, %11
  br i1 %.not, label %25, label %12

12:                                               ; preds = %8
  call void @llvm.lifetime.start.p0(i64 16, ptr nonnull %2)
  %13 = getelementptr inbounds i8, ptr %9, i64 16
  store ptr %13, ptr %2, align 8
  %14 = call noundef i32 @pthread_mutex_lock(ptr noundef nonnull %13) #14
  %.not.i.i.i.i = icmp eq i32 %14, 0
  br i1 %.not.i.i.i.i, label %_ZNSt11unique_lockISt5mutexEC2ERS0_.exit.i, label %15

15:                                               ; preds = %12
  call void @_ZSt20__throw_system_errori(i32 noundef %14) #15
  unreachable

_ZNSt11unique_lockISt5mutexEC2ERS0_.exit.i:       ; preds = %12
  store i8 1, ptr %7, align 8
  %16 = getelementptr inbounds i8, ptr %9, i64 56
  %17 = getelementptr inbounds i8, ptr %9, i64 121
  %.val.val2.i.i = load i8, ptr %17, align 1
  %18 = and i8 %.val.val2.i.i, 1
  %.not.i3.i.i = icmp eq i8 %18, 0
  br i1 %.not.i3.i.i, label %"_ZNSt18condition_variable4waitIZN9Stockfish6Thread24wait_for_search_finishedEvE3$_0EEvRSt11unique_lockISt5mutexET_.exit.thread.i", label %.lr.ph.i.i

.lr.ph.i.i:                                       ; preds = %_ZNSt11unique_lockISt5mutexEC2ERS0_.exit.i, %.lr.ph.i.i
  call void @_ZNSt18condition_variable4waitERSt11unique_lockISt5mutexE(ptr noundef nonnull align 8 dereferenceable(48) %16, ptr noundef nonnull align 8 dereferenceable(9) %2) #14
  %.val.val.i.i = load i8, ptr %17, align 1
  %19 = and i8 %.val.val.i.i, 1
  %.not.i.i.i = icmp eq i8 %19, 0
  br i1 %.not.i.i.i, label %"_ZNSt18condition_variable4waitIZN9Stockfish6Thread24wait_for_search_finishedEvE3$_0EEvRSt11unique_lockISt5mutexET_.exit.i", label %.lr.ph.i.i, !llvm.loop !8

"_ZNSt18condition_variable4waitIZN9Stockfish6Thread24wait_for_search_finishedEvE3$_0EEvRSt11unique_lockISt5mutexET_.exit.i": ; preds = %.lr.ph.i.i
  %.pre.i = load i8, ptr %7, align 8
  %20 = and i8 %.pre.i, 1
  %21 = icmp eq i8 %20, 0
  br i1 %21, label %_ZN9Stockfish6Thread24wait_for_search_finishedEv.exit, label %"_ZNSt18condition_variable4waitIZN9Stockfish6Thread24wait_for_search_finishedEvE3$_0EEvRSt11unique_lockISt5mutexET_.exit.thread.i"

"_ZNSt18condition_variable4waitIZN9Stockfish6Thread24wait_for_search_finishedEvE3$_0EEvRSt11unique_lockISt5mutexET_.exit.thread.i": ; preds = %"_ZNSt18condition_variable4waitIZN9Stockfish6Thread24wait_for_search_finishedEvE3$_0EEvRSt11unique_lockISt5mutexET_.exit.i", %_ZNSt11unique_lockISt5mutexEC2ERS0_.exit.i
  %22 = load ptr, ptr %2, align 8
  %.not1.i.i.i = icmp eq ptr %22, null
  br i1 %.not1.i.i.i, label %_ZN9Stockfish6Thread24wait_for_search_finishedEv.exit, label %23

23:                                               ; preds = %"_ZNSt18condition_variable4waitIZN9Stockfish6Thread24wait_for_search_finishedEvE3$_0EEvRSt11unique_lockISt5mutexET_.exit.thread.i"
  %24 = call noundef i32 @pthread_mutex_unlock(ptr noundef nonnull %22) #14
  br label %_ZN9Stockfish6Thread24wait_for_search_finishedEv.exit

_ZN9Stockfish6Thread24wait_for_search_finishedEv.exit: ; preds = %"_ZNSt18condition_variable4waitIZN9Stockfish6Thread24wait_for_search_finishedEvE3$_0EEvRSt11unique_lockISt5mutexET_.exit.i", %"_ZNSt18condition_variable4waitIZN9Stockfish6Thread24wait_for_search_finishedEvE3$_0EEvRSt11unique_lockISt5mutexET_.exit.thread.i", %23
  call void @llvm.lifetime.end.p0(i64 16, ptr nonnull %2)
  br label %25

25:                                               ; preds = %8, %_ZN9Stockfish6Thread24wait_for_search_finishedEv.exit
  %26 = getelementptr inbounds i8, ptr %.sroa.05.010, i64 8
  %.not8 = icmp eq ptr %26, %6
  br i1 %.not8, label %._crit_edge, label %8

._crit_edge:                                      ; preds = %25, %1
  ret void
}